target datalayout = "e-m:e-p270:32:32-p271:32:32-p272:64:64-i64:64-i128:128-f80:128-n8:16:32:64-S128"
target triple = "x86_64-pc-linux-gnu"

; Function Attrs: nounwind uwtable
define internal void @intra_pred_lp(ptr noundef %0, ptr noundef %1, ptr noundef %2, i64 noundef %3) #0 {
  %5 = alloca ptr, align 8
  %6 = alloca ptr, align 8
  %7 = alloca ptr, align 8
  %8 = alloca i64, align 8
  %9 = alloca i32, align 4
  %10 = alloca i32, align 4
  store ptr %0, ptr %5, align 8, !tbaa !57
  store ptr %1, ptr %6, align 8, !tbaa !57
  store ptr %2, ptr %7, align 8, !tbaa !57
  store i64 %3, ptr %8, align 8, !tbaa !107
  call void @llvm.lifetime.start.p0(i64 4, ptr %9) #10
  call void @llvm.lifetime.start.p0(i64 4, ptr %10) #10
  store i32 0, ptr %10, align 4, !tbaa !9
  br label %11

11:                                               ; preds = %91, %4
  %12 = load i32, ptr %10, align 4, !tbaa !9
  %13 = icmp slt i32 %12, 8
  br i1 %13, label %14, label %94

14:                                               ; preds = %11
  store i32 0, ptr %9, align 4, !tbaa !9
  br label %15

15:                                               ; preds = %87, %14
  %16 = load i32, ptr %9, align 4, !tbaa !9
  %17 = icmp slt i32 %16, 8
  br i1 %17, label %18, label %90

18:                                               ; preds = %15
  %19 = load ptr, ptr %6, align 8, !tbaa !57
  %20 = load i32, ptr %9, align 4, !tbaa !9
  %21 = add nsw i32 %20, 1
  %22 = sub nsw i32 %21, 1
  %23 = sext i32 %22 to i64
  %24 = getelementptr inbounds i8, ptr %19, i64 %23
  %25 = load i8, ptr %24, align 1, !tbaa !27
  %26 = zext i8 %25 to i32
  %27 = load ptr, ptr %6, align 8, !tbaa !57
  %28 = load i32, ptr %9, align 4, !tbaa !9
  %29 = add nsw i32 %28, 1
  %30 = sext i32 %29 to i64
  %31 = getelementptr inbounds i8, ptr %27, i64 %30
  %32 = load i8, ptr %31, align 1, !tbaa !27
  %33 = zext i8 %32 to i32
  %34 = mul nsw i32 2, %33
  %35 = add nsw i32 %26, %34
  %36 = load ptr, ptr %6, align 8, !tbaa !57
  %37 = load i32, ptr %9, align 4, !tbaa !9
  %38 = add nsw i32 %37, 1
  %39 = add nsw i32 %38, 1
  %40 = sext i32 %39 to i64
  %41 = getelementptr inbounds i8, ptr %36, i64 %40
  %42 = load i8, ptr %41, align 1, !tbaa !27
  %43 = zext i8 %42 to i32
  %44 = add nsw i32 %35, %43
  %45 = add nsw i32 %44, 2
  %46 = ashr i32 %45, 2
  %47 = load ptr, ptr %7, align 8, !tbaa !57
  %48 = load i32, ptr %10, align 4, !tbaa !9
  %49 = add nsw i32 %48, 1
  %50 = sub nsw i32 %49, 1
  %51 = sext i32 %50 to i64
  %52 = getelementptr inbounds i8, ptr %47, i64 %51
  %53 = load i8, ptr %52, align 1, !tbaa !27
  %54 = zext i8 %53 to i32
  %55 = load ptr, ptr %7, align 8, !tbaa !57
  %56 = load i32, ptr %10, align 4, !tbaa !9
  %57 = add nsw i32 %56, 1
  %58 = sext i32 %57 to i64
  %59 = getelementptr inbounds i8, ptr %55, i64 %58
  %60 = load i8, ptr %59, align 1, !tbaa !27
  %61 = zext i8 %60 to i32
  %62 = mul nsw i32 2, %61
  %63 = add nsw i32 %54, %62
  %64 = load ptr, ptr %7, align 8, !tbaa !57
  %65 = load i32, ptr %10, align 4, !tbaa !9
  %66 = add nsw i32 %65, 1
  %67 = add nsw i32 %66, 1
  %68 = sext i32 %67 to i64
  %69 = getelementptr inbounds i8, ptr %64, i64 %68
  %70 = load i8, ptr %69, align 1, !tbaa !27
  %71 = zext i8 %70 to i32
  %72 = add nsw i32 %63, %71
  %73 = add nsw i32 %72, 2
  %74 = ashr i32 %73, 2
  %75 = add nsw i32 %46, %74
  %76 = ashr i32 %75, 1
  %77 = trunc i32 %76 to i8
  %78 = load ptr, ptr %5, align 8, !tbaa !57
  %79 = load i32, ptr %10, align 4, !tbaa !9
  %80 = sext i32 %79 to i64
  %81 = load i64, ptr %8, align 8, !tbaa !107
  %82 = mul nsw i64 %80, %81
  %83 = load i32, ptr %9, align 4, !tbaa !9
  %84 = sext i32 %83 to i64
  %85 = add nsw i64 %82, %84
  %86 = getelementptr inbounds i8, ptr %78, i64 %85
  store i8 %77, ptr %86, align 1, !tbaa !27
  br label %87

87:                                               ; preds = %18
  %88 = load i32, ptr %9, align 4, !tbaa !9
  %89 = add nsw i32 %88, 1
  store i32 %89, ptr %9, align 4, !tbaa !9
  br label %15, !llvm.loop !110

90:                                               ; preds = %15
  br label %91

91:                                               ; preds = %90
  %92 = load i32, ptr %10, align 4, !tbaa !9
  %93 = add nsw i32 %92, 1
  store i32 %93, ptr %10, align 4, !tbaa !9
  br label %11, !llvm.loop !111

94:                                               ; preds = %11
  call void @llvm.lifetime.end.p0(i64 4, ptr %10) #10
  call void @llvm.lifetime.end.p0(i64 4, ptr %9) #10
  ret void
}