; Function Attrs: nofree norecurse nosync nounwind memory(argmem: readwrite) uwtable
define internal void @intra_pred_lp(ptr noundef writeonly captures(none) %0, ptr noundef readonly captures(none) %1, ptr noundef readonly captures(none) %2, i64 noundef %3) #9 {
  %invariant.gep = getelementptr inbounds nuw i8, ptr %2, i64 1
  br label %.preheader

.preheader:                                       ; preds = %4, %39
  %indvars.iv23 = phi i64 [ 0, %4 ], [ %indvars.iv.next24, %39 ]
  %5 = getelementptr inbounds nuw i8, ptr %2, i64 %indvars.iv23
  %gep = getelementptr inbounds nuw i8, ptr %invariant.gep, i64 %indvars.iv23
  %6 = getelementptr inbounds nuw i8, ptr %5, i64 2
  %7 = mul nsw i64 %3, %indvars.iv23
  %8 = getelementptr i8, ptr %0, i64 %7
  br label %9

9:                                                ; preds = %.preheader, %9
  %indvars.iv = phi i64 [ 0, %.preheader ], [ %indvars.iv.next, %9 ]
  %indvars.iv.next = add nuw nsw i64 %indvars.iv, 1
  %10 = getelementptr inbounds nuw i8, ptr %1, i64 %indvars.iv
  %11 = load i8, ptr %10, align 1, !tbaa !24
  %12 = zext i8 %11 to i16
  %13 = getelementptr inbounds nuw i8, ptr %1, i64 %indvars.iv.next
  %14 = load i8, ptr %13, align 1, !tbaa !24
  %15 = zext i8 %14 to i16
  %16 = shl nuw nsw i16 %15, 1
  %17 = getelementptr inbounds nuw i8, ptr %10, i64 2
  %18 = load i8, ptr %17, align 1, !tbaa !24
  %19 = zext i8 %18 to i16
  %20 = add nuw nsw i16 %12, 2
  %21 = add nuw nsw i16 %20, %16
  %22 = add nuw nsw i16 %21, %19
  %23 = lshr i16 %22, 2
  %24 = load i8, ptr %5, align 1, !tbaa !24
  %25 = zext i8 %24 to i16
  %26 = load i8, ptr %gep, align 1, !tbaa !24
  %27 = zext i8 %26 to i16
  %28 = shl nuw nsw i16 %27, 1
  %29 = load i8, ptr %6, align 1, !tbaa !24
  %30 = zext i8 %29 to i16
  %31 = add nuw nsw i16 %25, 2
  %32 = add nuw nsw i16 %31, %28
  %33 = add nuw nsw i16 %32, %30
  %34 = lshr i16 %33, 2
  %35 = add nuw nsw i16 %34, %23
  %36 = lshr i16 %35, 1
  %37 = trunc nuw i16 %36 to i8
  %38 = getelementptr i8, ptr %8, i64 %indvars.iv
  store i8 %37, ptr %38, align 1, !tbaa !24
  %exitcond.not = icmp eq i64 %indvars.iv.next, 8
  br i1 %exitcond.not, label %39, label %9, !llvm.loop !98

39:                                               ; preds = %9
  %indvars.iv.next24 = add nuw nsw i64 %indvars.iv23, 1
  %exitcond26.not = icmp eq i64 %indvars.iv.next24, 8
  br i1 %exitcond26.not, label %40, label %.preheader, !llvm.loop !99

40:                                               ; preds = %39
  ret void
}